target datalayout = "e-m:e-p270:32:32-p271:32:32-p272:64:64-i64:64-i128:128-f80:128-n8:16:32:64-S128"
target triple = "x86_64-pc-linux-gnu"

@.str.4 = private unnamed_addr constant [34 x i8] c"../openssl/test/cipherlist_test.c\00", align 1
@.str.8 = private unnamed_addr constant [19 x i8] c"ssl = SSL_new(ctx)\00", align 1
@.str.9 = private unnamed_addr constant [42 x i8] c"ciphers = SSL_get1_supported_ciphers(ssl)\00", align 1
@.str.10 = private unnamed_addr constant [12 x i8] c"num_ciphers\00", align 1
@.str.11 = private unnamed_addr constant [21 x i8] c"num_expected_ciphers\00", align 1
@.str.12 = private unnamed_addr constant [10 x i8] c"cipher_id\00", align 1
@.str.13 = private unnamed_addr constant [19 x i8] c"expected_cipher_id\00", align 1
@.str.14 = private unnamed_addr constant [28 x i8] c"Wrong cipher at position %d\00", align 1

; Function Attrs: inlinehint nounwind uwtable
define internal ptr @ossl_check_SSL_CIPHER_sk_type(ptr noundef %0) #3 {
  %2 = alloca ptr, align 8
  store ptr %0, ptr %2, align 8, !tbaa !21
  %3 = load ptr, ptr %2, align 8, !tbaa !21
  ret ptr %3
}

; Function Attrs: inlinehint nounwind uwtable
define internal ptr @ossl_check_const_SSL_CIPHER_sk_type(ptr noundef %0) #3 {
  %2 = alloca ptr, align 8
  store ptr %0, ptr %2, align 8, !tbaa !21
  %3 = load ptr, ptr %2, align 8, !tbaa !21
  ret ptr %3
}

; Function Attrs: nounwind uwtable
define internal i32 @test_default_cipherlist(ptr noundef %0) #0 {
  %2 = alloca i32, align 4
  %3 = alloca ptr, align 8
  %4 = alloca ptr, align 8
  %5 = alloca ptr, align 8
  %6 = alloca i32, align 4
  %7 = alloca i32, align 4
  %8 = alloca i32, align 4
  %9 = alloca i32, align 4
  %10 = alloca i32, align 4
  %11 = alloca i32, align 4
  %12 = alloca i32, align 4
  store ptr %0, ptr %3, align 8, !tbaa !20
  call void @llvm.lifetime.start.p0(i64 8, ptr %4) #4
  store ptr null, ptr %4, align 8, !tbaa !21
  call void @llvm.lifetime.start.p0(i64 8, ptr %5) #4
  store ptr null, ptr %5, align 8, !tbaa !16
  call void @llvm.lifetime.start.p0(i64 4, ptr %6) #4
  call void @llvm.lifetime.start.p0(i64 4, ptr %7) #4
  store i32 0, ptr %7, align 4, !tbaa !9
  call void @llvm.lifetime.start.p0(i64 4, ptr %8) #4
  call void @llvm.lifetime.start.p0(i64 4, ptr %9) #4
  call void @llvm.lifetime.start.p0(i64 4, ptr %10) #4
  call void @llvm.lifetime.start.p0(i64 4, ptr %11) #4
  %13 = load ptr, ptr %3, align 8, !tbaa !20
  %14 = icmp eq ptr %13, null
  br i1 %14, label %15, label %16

15:                                               ; preds = %1
  store i32 0, ptr %2, align 4
  store i32 1, ptr %12, align 4
  br label %67

16:                                               ; preds = %1
  %17 = load ptr, ptr %3, align 8, !tbaa !20
  %18 = call ptr @SSL_new(ptr noundef %17)
  store ptr %18, ptr %5, align 8, !tbaa !16
  %19 = call i32 @test_ptr(ptr noundef @.str.4, i32 noundef 158, ptr noundef @.str.8, ptr noundef %18)
  %20 = icmp ne i32 %19, 0
  br i1 %20, label %21, label %26

21:                                               ; preds = %16
  %22 = load ptr, ptr %5, align 8, !tbaa !16
  %23 = call ptr @SSL_get1_supported_ciphers(ptr noundef %22)
  store ptr %23, ptr %4, align 8, !tbaa !21
  %24 = call i32 @test_ptr(ptr noundef @.str.4, i32 noundef 159, ptr noundef @.str.9, ptr noundef %23)
  %25 = icmp ne i32 %24, 0
  br i1 %25, label %27, label %26

26:                                               ; preds = %21, %16
  br label %62

27:                                               ; preds = %21
  store i32 30, ptr %8, align 4, !tbaa !9
  %28 = load ptr, ptr %4, align 8, !tbaa !21
  %29 = call ptr @ossl_check_const_SSL_CIPHER_sk_type(ptr noundef %28)
  %30 = call i32 @OPENSSL_sk_num(ptr noundef %29)
  store i32 %30, ptr %9, align 4, !tbaa !9
  %31 = load i32, ptr %9, align 4, !tbaa !9
  %32 = load i32, ptr %8, align 4, !tbaa !9
  %33 = call i32 @test_int_eq(ptr noundef @.str.4, i32 noundef 164, ptr noundef @.str.10, ptr noundef @.str.11, i32 noundef %31, i32 noundef %32)
  %34 = icmp ne i32 %33, 0
  br i1 %34, label %36, label %35

35:                                               ; preds = %27
  br label %62

36:                                               ; preds = %27
  store i32 0, ptr %6, align 4, !tbaa !9
  br label %37

37:                                               ; preds = %58, %36
  %38 = load i32, ptr %6, align 4, !tbaa !9
  %39 = load i32, ptr %9, align 4, !tbaa !9
  %40 = icmp slt i32 %38, %39
  br i1 %40, label %41, label %61

41:                                               ; preds = %37
  %42 = load i32, ptr %6, align 4, !tbaa !9
  %43 = sext i32 %42 to i64
  %44 = getelementptr inbounds [30 x i32], ptr @default_ciphers_in_order, i64 0, i64 %43
  %45 = load i32, ptr %44, align 4, !tbaa !9
  store i32 %45, ptr %10, align 4, !tbaa !9
  %46 = load ptr, ptr %4, align 8, !tbaa !21
  %47 = call ptr @ossl_check_const_SSL_CIPHER_sk_type(ptr noundef %46)
  %48 = load i32, ptr %6, align 4, !tbaa !9
  %49 = call ptr @OPENSSL_sk_value(ptr noundef %47, i32 noundef %48)
  %50 = call i32 @SSL_CIPHER_get_id(ptr noundef %49)
  store i32 %50, ptr %11, align 4, !tbaa !9
  %51 = load i32, ptr %11, align 4, !tbaa !9
  %52 = load i32, ptr %10, align 4, !tbaa !9
  %53 = call i32 @test_int_eq(ptr noundef @.str.4, i32 noundef 170, ptr noundef @.str.12, ptr noundef @.str.13, i32 noundef %51, i32 noundef %52)
  %54 = icmp ne i32 %53, 0
  br i1 %54, label %57, label %55

55:                                               ; preds = %41
  %56 = load i32, ptr %6, align 4, !tbaa !9
  call void (ptr, i32, ptr, ...) @test_info(ptr noundef @.str.4, i32 noundef 171, ptr noundef @.str.14, i32 noundef %56)
  br label %62

57:                                               ; preds = %41
  br label %58

58:                                               ; preds = %57
  %59 = load i32, ptr %6, align 4, !tbaa !9
  %60 = add nsw i32 %59, 1
  store i32 %60, ptr %6, align 4, !tbaa !9
  br label %37, !llvm.loop !23

61:                                               ; preds = %37
  store i32 1, ptr %7, align 4, !tbaa !9
  br label %62

62:                                               ; preds = %61, %55, %35, %26
  %63 = load ptr, ptr %4, align 8, !tbaa !21
  %64 = call ptr @ossl_check_SSL_CIPHER_sk_type(ptr noundef %63)
  call void @OPENSSL_sk_free(ptr noundef %64)
  %65 = load ptr, ptr %5, align 8, !tbaa !16
  call void @SSL_free(ptr noundef %65)
  %66 = load i32, ptr %7, align 4, !tbaa !9
  store i32 %66, ptr %2, align 4
  store i32 1, ptr %12, align 4
  br label %67

67:                                               ; preds = %62, %15
  call void @llvm.lifetime.end.p0(i64 4, ptr %11) #4
  call void @llvm.lifetime.end.p0(i64 4, ptr %10) #4
  call void @llvm.lifetime.end.p0(i64 4, ptr %9) #4
  call void @llvm.lifetime.end.p0(i64 4, ptr %8) #4
  call void @llvm.lifetime.end.p0(i64 4, ptr %7) #4
  call void @llvm.lifetime.end.p0(i64 4, ptr %6) #4
  call void @llvm.lifetime.end.p0(i64 8, ptr %5) #4
  call void @llvm.lifetime.end.p0(i64 8, ptr %4) #4
  %68 = load i32, ptr %2, align 4
  ret i32 %68
}