; Function Attrs: nounwind uwtable
define internal fastcc range(i32 0, 2) i32 @test_default_cipherlist(ptr noundef %0) unnamed_addr #0 {
  %2 = icmp eq ptr %0, null
  br i1 %2, label %21, label %3

3:                                                ; preds = %1
  %4 = tail call ptr @SSL_new(ptr noundef nonnull %0) #3
  %5 = tail call i32 @test_ptr(ptr noundef nonnull @.str.4, i32 noundef 158, ptr noundef nonnull @.str.8, ptr noundef %4) #3
  %.not = icmp eq i32 %5, 0
  br i1 %.not, label %.loopexit, label %6

6:                                                ; preds = %3
  %7 = tail call ptr @SSL_get1_supported_ciphers(ptr noundef %4) #3
  %8 = tail call i32 @test_ptr(ptr noundef nonnull @.str.4, i32 noundef 159, ptr noundef nonnull @.str.9, ptr noundef %7) #3
  %.not22 = icmp eq i32 %8, 0
  br i1 %.not22, label %.loopexit, label %9

9:                                                ; preds = %6
  %10 = tail call i32 @OPENSSL_sk_num(ptr noundef %7) #3
  %11 = tail call i32 @test_int_eq(ptr noundef nonnull @.str.4, i32 noundef 164, ptr noundef nonnull @.str.10, ptr noundef nonnull @.str.11, i32 noundef %10, i32 noundef 30) #3
  %.not23 = icmp eq i32 %11, 0
  br i1 %.not23, label %.loopexit, label %.preheader

.preheader:                                       ; preds = %9
  %12 = icmp sgt i32 %10, 0
  br i1 %12, label %.lr.ph.preheader, label %.loopexit

.lr.ph.preheader:                                 ; preds = %.preheader
  %wide.trip.count = zext nneg i32 %10 to i64
  br label %.lr.ph

.lr.ph:                                           ; preds = %.lr.ph.preheader, %20
  %indvars.iv = phi i64 [ 0, %.lr.ph.preheader ], [ %indvars.iv.next, %20 ]
  %13 = getelementptr inbounds nuw [30 x i32], ptr @default_ciphers_in_order, i64 0, i64 %indvars.iv
  %14 = load i32, ptr %13, align 4, !tbaa !13
  %15 = trunc nuw nsw i64 %indvars.iv to i32
  %16 = tail call ptr @OPENSSL_sk_value(ptr noundef %7, i32 noundef %15) #3
  %17 = tail call i32 @SSL_CIPHER_get_id(ptr noundef %16) #3
  %18 = tail call i32 @test_int_eq(ptr noundef nonnull @.str.4, i32 noundef 170, ptr noundef nonnull @.str.12, ptr noundef nonnull @.str.13, i32 noundef %17, i32 noundef %14) #3
  %.not24 = icmp eq i32 %18, 0
  br i1 %.not24, label %19, label %20

19:                                               ; preds = %.lr.ph
  tail call void (ptr, i32, ptr, ...) @test_info(ptr noundef nonnull @.str.4, i32 noundef 171, ptr noundef nonnull @.str.14, i32 noundef %15) #3
  br label %.loopexit

20:                                               ; preds = %.lr.ph
  %indvars.iv.next = add nuw nsw i64 %indvars.iv, 1
  %exitcond.not = icmp eq i64 %indvars.iv.next, %wide.trip.count
  br i1 %exitcond.not, label %.loopexit, label %.lr.ph, !llvm.loop !15

.loopexit:                                        ; preds = %20, %.preheader, %9, %3, %6, %19
  %.020 = phi i32 [ 0, %19 ], [ 0, %9 ], [ 0, %6 ], [ 0, %3 ], [ 1, %.preheader ], [ 1, %20 ]
  %.018 = phi ptr [ %7, %19 ], [ %7, %9 ], [ %7, %6 ], [ null, %3 ], [ %7, %.preheader ], [ %7, %20 ]
  tail call void @OPENSSL_sk_free(ptr noundef %.018) #3
  tail call void @SSL_free(ptr noundef %4) #3
  br label %21

21:                                               ; preds = %1, %.loopexit
  %.0 = phi i32 [ %.020, %.loopexit ], [ 0, %1 ]
  ret i32 %.0
}